target datalayout = "e-m:e-p270:32:32-p271:32:32-p272:64:64-i64:64-i128:128-f80:128-n8:16:32:64-S128"
target triple = "x86_64-unknown-linux-gnu"

%"struct.node::AssertionInfo" = type { ptr, ptr, ptr }
%"class.v8::Local" = type { %"class.v8::LocalBase" }
%"class.v8::LocalBase" = type { %"class.v8::IndirectHandleBase" }
%"class.v8::IndirectHandleBase" = type { ptr }
%"class.v8::Local.14" = type { %"class.v8::LocalBase.15" }
%"class.v8::LocalBase.15" = type { %"class.v8::IndirectHandleBase" }
%"class.v8::Local.294" = type { %"class.v8::LocalBase.295" }
%"class.v8::LocalBase.295" = type { %"class.v8::IndirectHandleBase" }
%"class.v8::MaybeLocal" = type { %"class.v8::Local.14" }
%"class.v8::Local.325" = type { %"class.v8::LocalBase.326" }
%"class.v8::LocalBase.326" = type { %"class.v8::IndirectHandleBase" }
%"class.v8::Local.386" = type { %"class.v8::LocalBase.387" }
%"class.v8::LocalBase.387" = type { %"class.v8::IndirectHandleBase" }
%"class.v8::MaybeLocal.388" = type { %"class.v8::Local.386" }
%"class.v8::MaybeLocal.389" = type { %"class.v8::Local.294" }
%"class.v8::MaybeLocal.503" = type { %"class.v8::Local.325" }

@.str.82 = private unnamed_addr constant [13 x i8] c"DOMException\00", align 1
@_ZZN4node6worker12_GLOBAL__N_115GetDOMExceptionEN2v85LocalINS2_7ContextEEEE4args = internal constant %"struct.node::AssertionInfo" { ptr @.str.83, ptr @.str.84, ptr @.str.85 }, align 8

; Function Attrs: mustprogress nounwind uwtable
define linkonce_odr dso_local ptr @_ZN4node13OneByteStringEPN2v87IsolateEPKci(ptr noundef %isolate, ptr noundef %data, i32 noundef %length) #4 comdat {
entry:
  %this.addr.i.i = alloca ptr, align 8
  %this.addr.i11 = alloca ptr, align 8
  %retval.i = alloca %"class.v8::Local.325", align 8
  %this.addr.i = alloca ptr, align 8
  %retval = alloca %"class.v8::Local.325", align 8
  %isolate.addr = alloca ptr, align 8
  %data.addr = alloca ptr, align 8
  %length.addr = alloca i32, align 4
  %ref.tmp = alloca %"class.v8::MaybeLocal.503", align 8
  store ptr %isolate, ptr %isolate.addr, align 8
  store ptr %data, ptr %data.addr, align 8
  store i32 %length, ptr %length.addr, align 4
  %0 = load ptr, ptr %isolate.addr, align 8
  %1 = load ptr, ptr %data.addr, align 8
  %2 = load i32, ptr %length.addr, align 4
  %call = call ptr @_ZN2v86String14NewFromOneByteEPNS_7IsolateEPKhNS_13NewStringTypeEi(ptr noundef %0, ptr noundef %1, i32 noundef 0, i32 noundef %2)
  %coerce.dive = getelementptr inbounds %"class.v8::MaybeLocal.503", ptr %ref.tmp, i32 0, i32 0
  %coerce.dive1 = getelementptr inbounds %"class.v8::Local.325", ptr %coerce.dive, i32 0, i32 0
  %coerce.dive2 = getelementptr inbounds %"class.v8::LocalBase.326", ptr %coerce.dive1, i32 0, i32 0
  %coerce.dive3 = getelementptr inbounds %"class.v8::IndirectHandleBase", ptr %coerce.dive2, i32 0, i32 0
  store ptr %call, ptr %coerce.dive3, align 8
  store ptr %ref.tmp, ptr %this.addr.i, align 8
  %this1.i = load ptr, ptr %this.addr.i, align 8
  store ptr %this1.i, ptr %this.addr.i11, align 8
  %this1.i12 = load ptr, ptr %this.addr.i11, align 8
  store ptr %this1.i12, ptr %this.addr.i.i, align 8
  %this1.i.i = load ptr, ptr %this.addr.i.i, align 8
  %3 = load ptr, ptr %this1.i.i, align 8
  %cmp.i.i = icmp eq ptr %3, null
  br i1 %cmp.i.i, label %if.then.i, label %_ZN2v810MaybeLocalINS_6StringEE14ToLocalCheckedEv.exit

if.then.i:                                        ; preds = %entry
  call void @_ZN2v812api_internal12ToLocalEmptyEv() #3
  br label %_ZN2v810MaybeLocalINS_6StringEE14ToLocalCheckedEv.exit

_ZN2v810MaybeLocalINS_6StringEE14ToLocalCheckedEv.exit: ; preds = %if.then.i, %entry
  call void @llvm.memcpy.p0.p0.i64(ptr align 8 %retval.i, ptr align 8 %this1.i, i64 8, i1 false)
  %4 = load ptr, ptr %retval.i, align 8
  %coerce.dive5 = getelementptr inbounds %"class.v8::Local.325", ptr %retval, i32 0, i32 0
  %coerce.dive6 = getelementptr inbounds %"class.v8::LocalBase.326", ptr %coerce.dive5, i32 0, i32 0
  %coerce.dive7 = getelementptr inbounds %"class.v8::IndirectHandleBase", ptr %coerce.dive6, i32 0, i32 0
  store ptr %4, ptr %coerce.dive7, align 8
  %coerce.dive8 = getelementptr inbounds %"class.v8::Local.325", ptr %retval, i32 0, i32 0
  %coerce.dive9 = getelementptr inbounds %"class.v8::LocalBase.326", ptr %coerce.dive8, i32 0, i32 0
  %coerce.dive10 = getelementptr inbounds %"class.v8::IndirectHandleBase", ptr %coerce.dive9, i32 0, i32 0
  %5 = load ptr, ptr %coerce.dive10, align 8
  ret ptr %5
}

; Function Attrs: mustprogress nounwind uwtable
define linkonce_odr dso_local ptr @_ZN4node21FIXED_ONE_BYTE_STRINGILi13EEEN2v85LocalINS1_6StringEEEPNS1_7IsolateERAT__Kc(ptr noundef %isolate, ptr noundef nonnull align 1 dereferenceable(13) %data) #4 comdat {
entry:
  %retval = alloca %"class.v8::Local.325", align 8
  %isolate.addr = alloca ptr, align 8
  %data.addr = alloca ptr, align 8
  store ptr %isolate, ptr %isolate.addr, align 8
  store ptr %data, ptr %data.addr, align 8
  %0 = load ptr, ptr %isolate.addr, align 8
  %1 = load ptr, ptr %data.addr, align 8
  %arraydecay = getelementptr inbounds [13 x i8], ptr %1, i64 0, i64 0
  %call = call ptr @_ZN4node13OneByteStringEPN2v87IsolateEPKci(ptr noundef %0, ptr noundef %arraydecay, i32 noundef 12)
  %coerce.dive = getelementptr inbounds %"class.v8::Local.325", ptr %retval, i32 0, i32 0
  %coerce.dive1 = getelementptr inbounds %"class.v8::LocalBase.326", ptr %coerce.dive, i32 0, i32 0
  %coerce.dive2 = getelementptr inbounds %"class.v8::IndirectHandleBase", ptr %coerce.dive1, i32 0, i32 0
  store ptr %call, ptr %coerce.dive2, align 8
  %coerce.dive3 = getelementptr inbounds %"class.v8::Local.325", ptr %retval, i32 0, i32 0
  %coerce.dive4 = getelementptr inbounds %"class.v8::LocalBase.326", ptr %coerce.dive3, i32 0, i32 0
  %coerce.dive5 = getelementptr inbounds %"class.v8::IndirectHandleBase", ptr %coerce.dive4, i32 0, i32 0
  %2 = load ptr, ptr %coerce.dive5, align 8
  ret ptr %2
}

; Function Attrs: mustprogress nounwind uwtable
define internal ptr @_ZN4node6worker12_GLOBAL__N_115GetDOMExceptionEN2v85LocalINS2_7ContextEEE(ptr %context.coerce) #4 {
entry:
  %this.addr.i.i125 = alloca ptr, align 8
  %this.addr.i126 = alloca ptr, align 8
  %this.addr.i122 = alloca ptr, align 8
  %other.addr.i123 = alloca ptr, align 8
  %this.addr.i119 = alloca ptr, align 8
  %other.addr.i120 = alloca ptr, align 8
  %retval.i117 = alloca %"class.v8::Local.386", align 8
  %that.i118 = alloca %"class.v8::Local.14", align 8
  %ref.tmp.i = alloca %"class.v8::LocalBase.387", align 8
  %slot.addr.i116 = alloca ptr, align 8
  %this.addr.i.i112 = alloca ptr, align 8
  %this.addr.i113 = alloca ptr, align 8
  %this.addr.i110 = alloca ptr, align 8
  %other.addr.i = alloca ptr, align 8
  %slot.addr.i109 = alloca ptr, align 8
  %this.addr.i.i105 = alloca ptr, align 8
  %this.addr.i106 = alloca ptr, align 8
  %this.addr.i.i100 = alloca ptr, align 8
  %this.addr.i101 = alloca ptr, align 8
  %that.i97 = alloca %"class.v8::Local.386", align 8
  %this.addr.i98 = alloca ptr, align 8
  %this.addr.i.i93 = alloca ptr, align 8
  %this.addr.i94 = alloca ptr, align 8
  %this.addr.i.i89 = alloca ptr, align 8
  %this.addr.i90 = alloca ptr, align 8
  %slot.addr.i = alloca ptr, align 8
  %this.addr.i87 = alloca ptr, align 8
  %this.addr.i85 = alloca ptr, align 8
  %this.addr.i.i81 = alloca ptr, align 8
  %this.addr.i82 = alloca ptr, align 8
  %this.addr.i78 = alloca ptr, align 8
  %that.i = alloca %"class.v8::Local.325", align 8
  %this.addr.i77 = alloca ptr, align 8
  %this.addr.i73 = alloca ptr, align 8
  %out.addr.i74 = alloca ptr, align 8
  %this.addr.i71 = alloca ptr, align 8
  %this.addr.i.i = alloca ptr, align 8
  %this.addr.i69 = alloca ptr, align 8
  %retval.i = alloca %"class.v8::Local.386", align 8
  %this.addr.i66 = alloca ptr, align 8
  %agg.tmp.i = alloca %"class.v8::Local.14", align 8
  %this.addr.i63 = alloca ptr, align 8
  %this.addr.i60 = alloca ptr, align 8
  %this.addr.i58 = alloca ptr, align 8
  %out.addr.i = alloca ptr, align 8
  %this.addr.i = alloca ptr, align 8
  %retval = alloca %"class.v8::MaybeLocal.388", align 8
  %context = alloca %"class.v8::Local", align 8
  %isolate = alloca ptr, align 8
  %per_context_bindings = alloca %"class.v8::Local.294", align 8
  %domexception_ctor_val = alloca %"class.v8::Local.14", align 8
  %ref.tmp = alloca %"class.v8::MaybeLocal.389", align 8
  %agg.tmp = alloca %"class.v8::Local", align 8
  %ref.tmp13 = alloca %"class.v8::MaybeLocal", align 8
  %agg.tmp15 = alloca %"class.v8::Local", align 8
  %agg.tmp16 = alloca %"class.v8::Local.14", align 8
  %agg.tmp17 = alloca %"class.v8::Local.325", align 8
  %domexception_ctor = alloca %"class.v8::Local.386", align 8
  %agg.tmp50 = alloca %"class.v8::Local.386", align 8
  %coerce.dive = getelementptr inbounds %"class.v8::Local", ptr %context, i32 0, i32 0
  %coerce.dive1 = getelementptr inbounds %"class.v8::LocalBase", ptr %coerce.dive, i32 0, i32 0
  %coerce.dive2 = getelementptr inbounds %"class.v8::IndirectHandleBase", ptr %coerce.dive1, i32 0, i32 0
  store ptr %context.coerce, ptr %coerce.dive2, align 8
  store ptr %context, ptr %this.addr.i78, align 8
  %this1.i79 = load ptr, ptr %this.addr.i78, align 8
  store ptr %this1.i79, ptr %this.addr.i106, align 8
  %this1.i107 = load ptr, ptr %this.addr.i106, align 8
  store ptr %this1.i107, ptr %this.addr.i.i105, align 8
  %this1.i.i108 = load ptr, ptr %this.addr.i.i105, align 8
  %0 = load ptr, ptr %this1.i.i108, align 8
  store ptr %0, ptr %slot.addr.i109, align 8
  %1 = load ptr, ptr %slot.addr.i109, align 8
  %call3 = call noundef ptr @_ZN2v87Context10GetIsolateEv(ptr noundef nonnull align 1 dereferenceable(1) %1)
  store ptr %call3, ptr %isolate, align 8
  store ptr %per_context_bindings, ptr %this.addr.i71, align 8
  %this1.i72 = load ptr, ptr %this.addr.i71, align 8
  store ptr %this1.i72, ptr %this.addr.i85, align 8
  %this1.i86 = load ptr, ptr %this.addr.i85, align 8
  store ptr %this1.i86, ptr %this.addr.i87, align 8
  %this1.i88 = load ptr, ptr %this.addr.i87, align 8
  store ptr null, ptr %this1.i88, align 8
  store ptr %domexception_ctor_val, ptr %this.addr.i, align 8
  %this1.i = load ptr, ptr %this.addr.i, align 8
  store ptr %this1.i, ptr %this.addr.i90, align 8
  %this1.i91 = load ptr, ptr %this.addr.i90, align 8
  store ptr %this1.i91, ptr %this.addr.i.i89, align 8
  %this1.i.i92 = load ptr, ptr %this.addr.i.i89, align 8
  store ptr null, ptr %this1.i.i92, align 8
  call void @llvm.memcpy.p0.p0.i64(ptr align 8 %agg.tmp, ptr align 8 %context, i64 8, i1 false)
  %coerce.dive4 = getelementptr inbounds %"class.v8::Local", ptr %agg.tmp, i32 0, i32 0
  %coerce.dive5 = getelementptr inbounds %"class.v8::LocalBase", ptr %coerce.dive4, i32 0, i32 0
  %coerce.dive6 = getelementptr inbounds %"class.v8::IndirectHandleBase", ptr %coerce.dive5, i32 0, i32 0
  %2 = load ptr, ptr %coerce.dive6, align 8
  %call7 = call ptr @_ZN4node20GetPerContextExportsEN2v85LocalINS0_7ContextEEE(ptr %2)
  %coerce.dive8 = getelementptr inbounds %"class.v8::MaybeLocal.389", ptr %ref.tmp, i32 0, i32 0
  %coerce.dive9 = getelementptr inbounds %"class.v8::Local.294", ptr %coerce.dive8, i32 0, i32 0
  %coerce.dive10 = getelementptr inbounds %"class.v8::LocalBase.295", ptr %coerce.dive9, i32 0, i32 0
  %coerce.dive11 = getelementptr inbounds %"class.v8::IndirectHandleBase", ptr %coerce.dive10, i32 0, i32 0
  store ptr %call7, ptr %coerce.dive11, align 8
  store ptr %ref.tmp, ptr %this.addr.i73, align 8
  store ptr %per_context_bindings, ptr %out.addr.i74, align 8
  %this1.i75 = load ptr, ptr %this.addr.i73, align 8
  %3 = load ptr, ptr %out.addr.i74, align 8
  call void @llvm.memcpy.p0.p0.i64(ptr align 8 %3, ptr align 8 %this1.i75, i64 8, i1 false)
  store ptr %this1.i75, ptr %this.addr.i101, align 8
  %this1.i102 = load ptr, ptr %this.addr.i101, align 8
  store ptr %this1.i102, ptr %this.addr.i.i100, align 8
  %this1.i.i103 = load ptr, ptr %this.addr.i.i100, align 8
  %4 = load ptr, ptr %this1.i.i103, align 8
  %cmp.i.i104 = icmp eq ptr %4, null
  %lnot.i76 = xor i1 %cmp.i.i104, true
  br i1 %lnot.i76, label %lor.rhs, label %lor.end

lor.rhs:                                          ; preds = %entry
  store ptr %per_context_bindings, ptr %this.addr.i63, align 8
  %this1.i64 = load ptr, ptr %this.addr.i63, align 8
  store ptr %this1.i64, ptr %this.addr.i82, align 8
  %this1.i83 = load ptr, ptr %this.addr.i82, align 8
  store ptr %this1.i83, ptr %this.addr.i.i81, align 8
  %this1.i.i84 = load ptr, ptr %this.addr.i.i81, align 8
  %5 = load ptr, ptr %this1.i.i84, align 8
  store ptr %5, ptr %slot.addr.i, align 8
  %6 = load ptr, ptr %slot.addr.i, align 8
  call void @llvm.memcpy.p0.p0.i64(ptr align 8 %agg.tmp15, ptr align 8 %context, i64 8, i1 false)
  %7 = load ptr, ptr %isolate, align 8
  %call18 = call ptr @_ZN4node21FIXED_ONE_BYTE_STRINGILi13EEEN2v85LocalINS1_6StringEEEPNS1_7IsolateERAT__Kc(ptr noundef %7, ptr noundef nonnull align 1 dereferenceable(13) @.str.82)
  %coerce.dive19 = getelementptr inbounds %"class.v8::Local.325", ptr %agg.tmp17, i32 0, i32 0
  %coerce.dive20 = getelementptr inbounds %"class.v8::LocalBase.326", ptr %coerce.dive19, i32 0, i32 0
  %coerce.dive21 = getelementptr inbounds %"class.v8::IndirectHandleBase", ptr %coerce.dive20, i32 0, i32 0
  store ptr %call18, ptr %coerce.dive21, align 8
  %coerce.dive22 = getelementptr inbounds %"class.v8::Local.325", ptr %agg.tmp17, i32 0, i32 0
  %coerce.dive23 = getelementptr inbounds %"class.v8::LocalBase.326", ptr %coerce.dive22, i32 0, i32 0
  %coerce.dive24 = getelementptr inbounds %"class.v8::IndirectHandleBase", ptr %coerce.dive23, i32 0, i32 0
  %8 = load ptr, ptr %coerce.dive24, align 8
  store ptr %8, ptr %that.i, align 8
  store ptr %agg.tmp16, ptr %this.addr.i77, align 8
  %this3.i = load ptr, ptr %this.addr.i77, align 8
  store ptr %this3.i, ptr %this.addr.i110, align 8
  store ptr %that.i, ptr %other.addr.i, align 8
  %this1.i111 = load ptr, ptr %this.addr.i110, align 8
  %9 = load ptr, ptr %other.addr.i, align 8
  call void @llvm.memcpy.p0.p0.i64(ptr align 8 %this1.i111, ptr align 8 %9, i64 8, i1 false)
  %coerce.dive25 = getelementptr inbounds %"class.v8::Local", ptr %agg.tmp15, i32 0, i32 0
  %coerce.dive26 = getelementptr inbounds %"class.v8::LocalBase", ptr %coerce.dive25, i32 0, i32 0
  %coerce.dive27 = getelementptr inbounds %"class.v8::IndirectHandleBase", ptr %coerce.dive26, i32 0, i32 0
  %10 = load ptr, ptr %coerce.dive27, align 8
  %coerce.dive28 = getelementptr inbounds %"class.v8::Local.14", ptr %agg.tmp16, i32 0, i32 0
  %coerce.dive29 = getelementptr inbounds %"class.v8::LocalBase.15", ptr %coerce.dive28, i32 0, i32 0
  %coerce.dive30 = getelementptr inbounds %"class.v8::IndirectHandleBase", ptr %coerce.dive29, i32 0, i32 0
  %11 = load ptr, ptr %coerce.dive30, align 8
  %call31 = call ptr @_ZN2v86Object3GetENS_5LocalINS_7ContextEEENS1_INS_5ValueEEE(ptr noundef nonnull align 1 dereferenceable(1) %6, ptr %10, ptr %11)
  %coerce.dive32 = getelementptr inbounds %"class.v8::MaybeLocal", ptr %ref.tmp13, i32 0, i32 0
  %coerce.dive33 = getelementptr inbounds %"class.v8::Local.14", ptr %coerce.dive32, i32 0, i32 0
  %coerce.dive34 = getelementptr inbounds %"class.v8::LocalBase.15", ptr %coerce.dive33, i32 0, i32 0
  %coerce.dive35 = getelementptr inbounds %"class.v8::IndirectHandleBase", ptr %coerce.dive34, i32 0, i32 0
  store ptr %call31, ptr %coerce.dive35, align 8
  store ptr %ref.tmp13, ptr %this.addr.i58, align 8
  store ptr %domexception_ctor_val, ptr %out.addr.i, align 8
  %this1.i59 = load ptr, ptr %this.addr.i58, align 8
  %12 = load ptr, ptr %out.addr.i, align 8
  call void @llvm.memcpy.p0.p0.i64(ptr align 8 %12, ptr align 8 %this1.i59, i64 8, i1 false)
  store ptr %this1.i59, ptr %this.addr.i69, align 8
  %this1.i70 = load ptr, ptr %this.addr.i69, align 8
  store ptr %this1.i70, ptr %this.addr.i.i, align 8
  %this1.i.i = load ptr, ptr %this.addr.i.i, align 8
  %13 = load ptr, ptr %this1.i.i, align 8
  %cmp.i.i = icmp eq ptr %13, null
  %lnot.i = xor i1 %cmp.i.i, true
  %lnot = xor i1 %lnot.i, true
  br label %lor.end

lor.end:                                          ; preds = %lor.rhs, %entry
  %14 = phi i1 [ true, %entry ], [ %lnot, %lor.rhs ]
  br i1 %14, label %if.then, label %if.end

if.then:                                          ; preds = %lor.end
  store ptr %retval, ptr %this.addr.i94, align 8
  %this1.i95 = load ptr, ptr %this.addr.i94, align 8
  call void @llvm.memset.p0.i64(ptr align 8 %this1.i95, i8 0, i64 8, i1 false)
  store ptr %this1.i95, ptr %this.addr.i.i93, align 8
  %this1.i.i96 = load ptr, ptr %this.addr.i.i93, align 8
  store ptr %this1.i.i96, ptr %this.addr.i126, align 8
  %this1.i127 = load ptr, ptr %this.addr.i126, align 8
  store ptr %this1.i127, ptr %this.addr.i.i125, align 8
  %this1.i.i128 = load ptr, ptr %this.addr.i.i125, align 8
  store ptr null, ptr %this1.i.i128, align 8
  br label %return

if.end:                                           ; preds = %lor.end
  br label %do.body

do.body:                                          ; preds = %if.end
  store ptr %domexception_ctor_val, ptr %this.addr.i60, align 8
  %this1.i61 = load ptr, ptr %this.addr.i60, align 8
  store ptr %this1.i61, ptr %this.addr.i113, align 8
  %this1.i114 = load ptr, ptr %this.addr.i113, align 8
  store ptr %this1.i114, ptr %this.addr.i.i112, align 8
  %this1.i.i115 = load ptr, ptr %this.addr.i.i112, align 8
  %15 = load ptr, ptr %this1.i.i115, align 8
  store ptr %15, ptr %slot.addr.i116, align 8
  %16 = load ptr, ptr %slot.addr.i116, align 8
  %call38 = call noundef zeroext i1 @_ZNK2v85Value10IsFunctionEv(ptr noundef nonnull align 1 dereferenceable(1) %16)
  %lnot39 = xor i1 %call38, true
  %lnot40 = xor i1 %lnot39, true
  %lnot41 = xor i1 %lnot40, true
  br i1 %lnot41, label %if.then42, label %if.end44

if.then42:                                        ; preds = %do.body
  br label %do.body43

do.body43:                                        ; preds = %if.then42
  call void @_ZN4node6AssertERKNS_13AssertionInfoE(ptr noundef nonnull align 8 dereferenceable(24) @_ZZN4node6worker12_GLOBAL__N_115GetDOMExceptionEN2v85LocalINS2_7ContextEEEE4args)
  call void @abort() #16
  unreachable

do.end:                                           ; No predecessors!
  br label %if.end44

if.end44:                                         ; preds = %do.end, %do.body
  br label %do.end45

do.end45:                                         ; preds = %if.end44
  store ptr %domexception_ctor_val, ptr %this.addr.i66, align 8
  %this1.i67 = load ptr, ptr %this.addr.i66, align 8
  call void @llvm.memcpy.p0.p0.i64(ptr align 8 %agg.tmp.i, ptr align 8 %this1.i67, i64 8, i1 false)
  %17 = load ptr, ptr %agg.tmp.i, align 8
  store ptr %17, ptr %that.i118, align 8
  store ptr %ref.tmp.i, ptr %this.addr.i119, align 8
  store ptr %that.i118, ptr %other.addr.i120, align 8
  %this1.i121 = load ptr, ptr %this.addr.i119, align 8
  %18 = load ptr, ptr %other.addr.i120, align 8
  call void @llvm.memcpy.p0.p0.i64(ptr align 8 %this1.i121, ptr align 8 %18, i64 8, i1 false)
  store ptr %retval.i117, ptr %this.addr.i122, align 8
  store ptr %ref.tmp.i, ptr %other.addr.i123, align 8
  %this1.i124 = load ptr, ptr %this.addr.i122, align 8
  %19 = load ptr, ptr %other.addr.i123, align 8
  call void @llvm.memcpy.p0.p0.i64(ptr align 8 %this1.i124, ptr align 8 %19, i64 8, i1 false)
  %20 = load ptr, ptr %retval.i117, align 8
  store ptr %20, ptr %retval.i, align 8
  %21 = load ptr, ptr %retval.i, align 8
  %coerce.dive47 = getelementptr inbounds %"class.v8::Local.386", ptr %domexception_ctor, i32 0, i32 0
  %coerce.dive48 = getelementptr inbounds %"class.v8::LocalBase.387", ptr %coerce.dive47, i32 0, i32 0
  %coerce.dive49 = getelementptr inbounds %"class.v8::IndirectHandleBase", ptr %coerce.dive48, i32 0, i32 0
  store ptr %21, ptr %coerce.dive49, align 8
  call void @llvm.memcpy.p0.p0.i64(ptr align 8 %agg.tmp50, ptr align 8 %domexception_ctor, i64 8, i1 false)
  %coerce.dive51 = getelementptr inbounds %"class.v8::Local.386", ptr %agg.tmp50, i32 0, i32 0
  %coerce.dive52 = getelementptr inbounds %"class.v8::LocalBase.387", ptr %coerce.dive51, i32 0, i32 0
  %coerce.dive53 = getelementptr inbounds %"class.v8::IndirectHandleBase", ptr %coerce.dive52, i32 0, i32 0
  %22 = load ptr, ptr %coerce.dive53, align 8
  store ptr %22, ptr %that.i97, align 8
  store ptr %retval, ptr %this.addr.i98, align 8
  %this3.i99 = load ptr, ptr %this.addr.i98, align 8
  call void @llvm.memcpy.p0.p0.i64(ptr align 8 %this3.i99, ptr align 8 %that.i97, i64 8, i1 false)
  br label %return

return:                                           ; preds = %do.end45, %if.then
  %coerce.dive54 = getelementptr inbounds %"class.v8::MaybeLocal.388", ptr %retval, i32 0, i32 0
  %coerce.dive55 = getelementptr inbounds %"class.v8::Local.386", ptr %coerce.dive54, i32 0, i32 0
  %coerce.dive56 = getelementptr inbounds %"class.v8::LocalBase.387", ptr %coerce.dive55, i32 0, i32 0
  %coerce.dive57 = getelementptr inbounds %"class.v8::IndirectHandleBase", ptr %coerce.dive56, i32 0, i32 0
  %23 = load ptr, ptr %coerce.dive57, align 8
  ret ptr %23
}