; Function Attrs: mustprogress nounwind uwtable
define internal fastcc ptr @_ZN4node6worker12_GLOBAL__N_115GetDOMExceptionEN2v85LocalINS2_7ContextEEE(ptr nonnull %context.coerce) unnamed_addr #6 {
entry:
  %call3 = tail call noundef ptr @_ZN2v87Context10GetIsolateEv(ptr noundef nonnull align 1 dereferenceable(1) %context.coerce) #26
  %call7 = tail call ptr @_ZN4node20GetPerContextExportsEN2v85LocalINS0_7ContextEEE(ptr nonnull %context.coerce) #26
  %cmp.i.i104.not = icmp eq ptr %call7, null
  br i1 %cmp.i.i104.not, label %return, label %lor.rhs

lor.rhs:                                          ; preds = %entry
  %call.i.i = tail call ptr @_ZN2v86String14NewFromOneByteEPNS_7IsolateEPKhNS_13NewStringTypeEi(ptr noundef %call3, ptr noundef nonnull @.str.82, i32 noundef 0, i32 noundef 12) #26
  %cmp.i.i.i.i = icmp eq ptr %call.i.i, null
  br i1 %cmp.i.i.i.i, label %if.then.i.i.i, label %_ZN4node21FIXED_ONE_BYTE_STRINGILi13EEEN2v85LocalINS1_6StringEEEPNS1_7IsolateERAT__Kc.exit

if.then.i.i.i:                                    ; preds = %lor.rhs
  tail call void @_ZN2v812api_internal12ToLocalEmptyEv() #26
  br label %_ZN4node21FIXED_ONE_BYTE_STRINGILi13EEEN2v85LocalINS1_6StringEEEPNS1_7IsolateERAT__Kc.exit

_ZN4node21FIXED_ONE_BYTE_STRINGILi13EEEN2v85LocalINS1_6StringEEEPNS1_7IsolateERAT__Kc.exit: ; preds = %lor.rhs, %if.then.i.i.i
  %call31 = tail call ptr @_ZN2v86Object3GetENS_5LocalINS_7ContextEEENS1_INS_5ValueEEE(ptr noundef nonnull align 1 dereferenceable(1) %call7, ptr nonnull %context.coerce, ptr %call.i.i) #26
  %cmp.i.i = icmp eq ptr %call31, null
  br i1 %cmp.i.i, label %return, label %do.body

do.body:                                          ; preds = %_ZN4node21FIXED_ONE_BYTE_STRINGILi13EEEN2v85LocalINS1_6StringEEEPNS1_7IsolateERAT__Kc.exit
  %call38 = tail call noundef zeroext i1 @_ZNK2v85Value10IsFunctionEv(ptr noundef nonnull align 1 dereferenceable(1) %call31) #26
  br i1 %call38, label %return, label %do.body43

do.body43:                                        ; preds = %do.body
  tail call void @_ZN4node6AssertERKNS_13AssertionInfoE(ptr noundef nonnull align 8 dereferenceable(24) @_ZZN4node6worker12_GLOBAL__N_115GetDOMExceptionEN2v85LocalINS2_7ContextEEEE4args) #26
  tail call void @abort() #27
  unreachable

return:                                           ; preds = %do.body, %_ZN4node21FIXED_ONE_BYTE_STRINGILi13EEEN2v85LocalINS1_6StringEEEPNS1_7IsolateERAT__Kc.exit, %entry
  %retval.sroa.0.0 = phi ptr [ null, %entry ], [ null, %_ZN4node21FIXED_ONE_BYTE_STRINGILi13EEEN2v85LocalINS1_6StringEEEPNS1_7IsolateERAT__Kc.exit ], [ %call31, %do.body ]
  ret ptr %retval.sroa.0.0
}